; Function Attrs: mustprogress nofree norecurse nosync nounwind willreturn memory(argmem: read) uwtable
define noundef zeroext i1 @_ZNK8facebook5velox6memory15MemoryReclaimer5StatseqERKS3_(ptr nocapture noundef nonnull readonly align 8 dereferenceable(32) %this, ptr nocapture noundef nonnull readonly align 8 dereferenceable(32) %other) local_unnamed_addr #9 align 2 {
entry:
  %0 = load i64, ptr %this, align 8
  %1 = load i64, ptr %other, align 8
  %cmp = icmp eq i64 %0, %1
  br i1 %cmp, label %land.lhs.true, label %land.end

land.lhs.true:                                    ; preds = %entry
  %reclaimExecTimeUs = getelementptr inbounds i8, ptr %this, i64 8
  %2 = load i64, ptr %reclaimExecTimeUs, align 8
  %reclaimExecTimeUs3 = getelementptr inbounds i8, ptr %other, i64 8
  %3 = load i64, ptr %reclaimExecTimeUs3, align 8
  %cmp4 = icmp eq i64 %2, %3
  br i1 %cmp4, label %land.lhs.true5, label %land.end

land.lhs.true5:                                   ; preds = %land.lhs.true
  %reclaimedBytes = getelementptr inbounds i8, ptr %this, i64 16
  %4 = load i64, ptr %reclaimedBytes, align 8
  %reclaimedBytes6 = getelementptr inbounds i8, ptr %other, i64 16
  %5 = load i64, ptr %reclaimedBytes6, align 8
  %cmp7 = icmp eq i64 %4, %5
  br i1 %cmp7, label %land.rhs, label %land.end

land.rhs:                                         ; preds = %land.lhs.true5
  %reclaimWaitTimeUs = getelementptr inbounds i8, ptr %this, i64 24
  %6 = load i64, ptr %reclaimWaitTimeUs, align 8
  %reclaimWaitTimeUs8 = getelementptr inbounds i8, ptr %other, i64 24
  %7 = load i64, ptr %reclaimWaitTimeUs8, align 8
  %cmp9 = icmp eq i64 %6, %7
  br label %land.end

land.end:                                         ; preds = %land.rhs, %land.lhs.true5, %land.lhs.true, %entry
  %8 = phi i1 [ false, %land.lhs.true5 ], [ false, %land.lhs.true ], [ false, %entry ], [ %cmp9, %land.rhs ]
  ret i1 %8
}